target datalayout = "e-m:e-p270:32:32-p271:32:32-p272:64:64-i64:64-i128:128-f80:128-n8:16:32:64-S128"
target triple = "x86_64-pc-linux-gnu"

%"struct.Luau::TypePackVar" = type { %"class.Luau::Variant", i8, ptr }
%"class.Luau::Variant" = type { i32, [4 x i8], [64 x i8] }
%"class.std::optional" = type { %"struct.std::_Optional_base" }
%"struct.std::_Optional_base" = type { %"struct.std::_Optional_payload" }
%"struct.std::_Optional_payload" = type { %"struct.std::_Optional_payload_base.base", [7 x i8] }
%"struct.std::_Optional_payload_base.base" = type <{ %"union.std::_Optional_payload_base<const Luau::TypePackVar *>::_Storage", i8 }>
%"union.std::_Optional_payload_base<const Luau::TypePackVar *>::_Storage" = type { ptr }
%"struct.Luau::TypePack" = type { %"class.std::vector.9", %"class.std::optional" }
%"class.std::vector.9" = type { %"struct.std::_Vector_base.10" }
%"struct.std::_Vector_base.10" = type { %"struct.std::_Vector_base<const Luau::Type *, std::allocator<const Luau::Type *>>::_Vector_impl" }
%"struct.std::_Vector_base<const Luau::Type *, std::allocator<const Luau::Type *>>::_Vector_impl" = type { %"struct.std::_Vector_base<const Luau::Type *, std::allocator<const Luau::Type *>>::_Vector_impl_data" }
%"struct.std::_Vector_base<const Luau::Type *, std::allocator<const Luau::Type *>>::_Vector_impl_data" = type { ptr, ptr, ptr }
%"struct.std::_Optional_payload_base" = type <{ %"union.std::_Optional_payload_base<const Luau::TypePackVar *>::_Storage", i8, [7 x i8] }>

; Function Attrs: mustprogress nounwind uwtable
define linkonce_odr dso_local noundef nonnull align 8 dereferenceable(8) ptr @_ZNKSt22_Optional_payload_baseIPKN4Luau11TypePackVarEE6_M_getEv(ptr noundef nonnull align 8 dereferenceable(9) %0) #7 comdat align 2 {
  %2 = alloca ptr, align 8
  store ptr %0, ptr %2, align 8, !tbaa !176
  %3 = load ptr, ptr %2, align 8
  %4 = getelementptr inbounds nuw %"struct.std::_Optional_payload_base", ptr %3, i32 0, i32 0
  ret ptr %4
}

; Function Attrs: mustprogress nounwind uwtable
define linkonce_odr dso_local noundef nonnull align 8 dereferenceable(8) ptr @_ZNKSt19_Optional_base_implIPKN4Luau11TypePackVarESt14_Optional_baseIS3_Lb1ELb1EEE6_M_getEv(ptr noundef nonnull align 1 dereferenceable(1) %0) #7 comdat align 2 {
  %2 = alloca ptr, align 8
  store ptr %0, ptr %2, align 8, !tbaa !172
  %3 = load ptr, ptr %2, align 8
  br label %4

4:                                                ; preds = %1
  br label %5

5:                                                ; preds = %4
  br label %6

6:                                                ; preds = %5
  %7 = getelementptr inbounds nuw %"struct.std::_Optional_base", ptr %3, i32 0, i32 0
  %8 = call noundef nonnull align 8 dereferenceable(8) ptr @_ZNKSt22_Optional_payload_baseIPKN4Luau11TypePackVarEE6_M_getEv(ptr noundef nonnull align 8 dereferenceable(9) %7) #17
  ret ptr %8
}

; Function Attrs: mustprogress nounwind uwtable
define linkonce_odr dso_local noundef zeroext i1 @_ZNKSt19_Optional_base_implIPKN4Luau11TypePackVarESt14_Optional_baseIS3_Lb1ELb1EEE13_M_is_engagedEv(ptr noundef nonnull align 1 dereferenceable(1) %0) #7 comdat align 2 {
  %2 = alloca ptr, align 8
  store ptr %0, ptr %2, align 8, !tbaa !172
  %3 = load ptr, ptr %2, align 8
  %4 = getelementptr inbounds nuw %"struct.std::_Optional_base", ptr %3, i32 0, i32 0
  %5 = getelementptr inbounds nuw %"struct.std::_Optional_payload_base", ptr %4, i32 0, i32 1
  %6 = load i8, ptr %5, align 8, !tbaa !174, !range !37, !noundef !38
  %7 = trunc i8 %6 to i1
  ret i1 %7
}

; Function Attrs: mustprogress nounwind uwtable
define linkonce_odr dso_local noundef ptr @_ZNK4Luau7VariantIJNS_9Unifiable5BoundIPKNS_11TypePackVarEEENS1_5ErrorIS5_EENS_12FreeTypePackENS_15GenericTypePackENS_8TypePackENS_16VariadicTypePackENS_15BlockedTypePackENS_28TypeFunctionInstanceTypePackEEE6get_ifISB_EEPKT_v(ptr noundef nonnull align 8 dereferenceable(72) %0) #7 comdat align 2 {
  %2 = alloca ptr, align 8
  %3 = alloca i32, align 4
  store ptr %0, ptr %2, align 8, !tbaa !48
  %4 = load ptr, ptr %2, align 8
  call void @llvm.lifetime.start.p0(i64 4, ptr %3) #17
  store i32 4, ptr %3, align 4, !tbaa !4
  %5 = getelementptr inbounds nuw %"class.Luau::Variant", ptr %4, i32 0, i32 0
  %6 = load i32, ptr %5, align 8, !tbaa !55
  %7 = icmp eq i32 4, %6
  br i1 %7, label %8, label %10

8:                                                ; preds = %1
  %9 = getelementptr inbounds nuw %"class.Luau::Variant", ptr %4, i32 0, i32 2
  br label %11

10:                                               ; preds = %1
  br label %11

11:                                               ; preds = %10, %8
  %12 = phi ptr [ %9, %8 ], [ null, %10 ]
  call void @llvm.lifetime.end.p0(i64 4, ptr %3) #17
  ret ptr %12
}

; Function Attrs: mustprogress nounwind uwtable
define linkonce_odr dso_local noundef nonnull align 8 dereferenceable(8) ptr @_ZNKRSt8optionalIPKN4Luau11TypePackVarEEdeEv(ptr noundef nonnull align 8 dereferenceable(16) %0) #7 comdat align 2 {
  %2 = alloca ptr, align 8
  store ptr %0, ptr %2, align 8, !tbaa !84
  %3 = load ptr, ptr %2, align 8
  %4 = call noundef nonnull align 8 dereferenceable(8) ptr @_ZNKSt19_Optional_base_implIPKN4Luau11TypePackVarESt14_Optional_baseIS3_Lb1ELb1EEE6_M_getEv(ptr noundef nonnull align 1 dereferenceable(1) %3) #17
  ret ptr %4
}

; Function Attrs: mustprogress nounwind uwtable
define linkonce_odr dso_local noundef zeroext i1 @_ZNKSt8optionalIPKN4Luau11TypePackVarEEcvbEv(ptr noundef nonnull align 8 dereferenceable(16) %0) #7 comdat align 2 {
  %2 = alloca ptr, align 8
  store ptr %0, ptr %2, align 8, !tbaa !84
  %3 = load ptr, ptr %2, align 8
  %4 = call noundef zeroext i1 @_ZNKSt19_Optional_base_implIPKN4Luau11TypePackVarESt14_Optional_baseIS3_Lb1ELb1EEE13_M_is_engagedEv(ptr noundef nonnull align 1 dereferenceable(1) %3) #17
  ret i1 %4
}

; Function Attrs: mustprogress nounwind uwtable
define linkonce_odr dso_local noundef i64 @_ZNKSt6vectorIPKN4Luau4TypeESaIS3_EE4sizeEv(ptr noundef nonnull align 8 dereferenceable(24) %0) #7 comdat align 2 {
  %2 = alloca ptr, align 8
  store ptr %0, ptr %2, align 8, !tbaa !82
  %3 = load ptr, ptr %2, align 8
  %4 = getelementptr inbounds nuw %"struct.std::_Vector_base.10", ptr %3, i32 0, i32 0
  %5 = getelementptr inbounds nuw %"struct.std::_Vector_base<const Luau::Type *, std::allocator<const Luau::Type *>>::_Vector_impl_data", ptr %4, i32 0, i32 1
  %6 = load ptr, ptr %5, align 8, !tbaa !89
  %7 = getelementptr inbounds nuw %"struct.std::_Vector_base.10", ptr %3, i32 0, i32 0
  %8 = getelementptr inbounds nuw %"struct.std::_Vector_base<const Luau::Type *, std::allocator<const Luau::Type *>>::_Vector_impl_data", ptr %7, i32 0, i32 0
  %9 = load ptr, ptr %8, align 8, !tbaa !93
  %10 = ptrtoint ptr %6 to i64
  %11 = ptrtoint ptr %9 to i64
  %12 = sub i64 %10, %11
  %13 = sdiv exact i64 %12, 8
  ret i64 %13
}

; Function Attrs: mustprogress uwtable
define linkonce_odr dso_local noundef ptr @_ZN4Luau6get_ifINS_8TypePackEJNS_9Unifiable5BoundIPKNS_11TypePackVarEEENS2_5ErrorIS6_EENS_12FreeTypePackENS_15GenericTypePackES1_NS_16VariadicTypePackENS_15BlockedTypePackENS_28TypeFunctionInstanceTypePackEEEEPKT_PKNS_7VariantIJDpT0_EEE(ptr noundef %0) #2 comdat {
  %2 = alloca ptr, align 8
  store ptr %0, ptr %2, align 8, !tbaa !48
  %3 = load ptr, ptr %2, align 8, !tbaa !48
  %4 = icmp ne ptr %3, null
  br i1 %4, label %5, label %8

5:                                                ; preds = %1
  %6 = load ptr, ptr %2, align 8, !tbaa !48
  %7 = call noundef ptr @_ZNK4Luau7VariantIJNS_9Unifiable5BoundIPKNS_11TypePackVarEEENS1_5ErrorIS5_EENS_12FreeTypePackENS_15GenericTypePackENS_8TypePackENS_16VariadicTypePackENS_15BlockedTypePackENS_28TypeFunctionInstanceTypePackEEE6get_ifISB_EEPKT_v(ptr noundef nonnull align 8 dereferenceable(72) %6)
  br label %9

8:                                                ; preds = %1
  br label %9

9:                                                ; preds = %8, %5
  %10 = phi ptr [ %7, %5 ], [ null, %8 ]
  ret ptr %10
}

; Function Attrs: mustprogress uwtable
define dso_local noundef i64 @_ZN4Luau4sizeERKNS_8TypePackEPNS_6TxnLogE(ptr noundef nonnull align 8 dereferenceable(40) %0, ptr noundef %1) #2 {
  %3 = alloca ptr, align 8
  %4 = alloca ptr, align 8
  %5 = alloca i64, align 8
  %6 = alloca ptr, align 8
  store ptr %0, ptr %3, align 8, !tbaa !95
  store ptr %1, ptr %4, align 8, !tbaa !73
  call void @llvm.lifetime.start.p0(i64 8, ptr %5) #17
  %7 = load ptr, ptr %3, align 8, !tbaa !95
  %8 = getelementptr inbounds nuw %"struct.Luau::TypePack", ptr %7, i32 0, i32 0
  %9 = call noundef i64 @_ZNKSt6vectorIPKN4Luau4TypeESaIS3_EE4sizeEv(ptr noundef nonnull align 8 dereferenceable(24) %8) #17
  store i64 %9, ptr %5, align 8, !tbaa !41
  %10 = load ptr, ptr %3, align 8, !tbaa !95
  %11 = getelementptr inbounds nuw %"struct.Luau::TypePack", ptr %10, i32 0, i32 1
  %12 = call noundef zeroext i1 @_ZNKSt8optionalIPKN4Luau11TypePackVarEEcvbEv(ptr noundef nonnull align 8 dereferenceable(16) %11) #17
  br i1 %12, label %13, label %41

13:                                               ; preds = %2
  call void @llvm.lifetime.start.p0(i64 8, ptr %6) #17
  %14 = load ptr, ptr %4, align 8, !tbaa !73
  %15 = icmp ne ptr %14, null
  br i1 %15, label %16, label %23

16:                                               ; preds = %13
  %17 = load ptr, ptr %4, align 8, !tbaa !73
  %18 = load ptr, ptr %3, align 8, !tbaa !95
  %19 = getelementptr inbounds nuw %"struct.Luau::TypePack", ptr %18, i32 0, i32 1
  %20 = call noundef nonnull align 8 dereferenceable(8) ptr @_ZNKRSt8optionalIPKN4Luau11TypePackVarEEdeEv(ptr noundef nonnull align 8 dereferenceable(16) %19) #17
  %21 = load ptr, ptr %20, align 8, !tbaa !46
  %22 = call noundef ptr @_ZNK4Luau6TxnLog6followEPKNS_11TypePackVarE(ptr noundef nonnull align 8 dereferenceable(128) %17, ptr noundef %21)
  br label %29

23:                                               ; preds = %13
  %24 = load ptr, ptr %3, align 8, !tbaa !95
  %25 = getelementptr inbounds nuw %"struct.Luau::TypePack", ptr %24, i32 0, i32 1
  %26 = call noundef nonnull align 8 dereferenceable(8) ptr @_ZNKRSt8optionalIPKN4Luau11TypePackVarEEdeEv(ptr noundef nonnull align 8 dereferenceable(16) %25) #17
  %27 = load ptr, ptr %26, align 8, !tbaa !46
  %28 = call noundef ptr @_ZN4Luau6followEPKNS_11TypePackVarE(ptr noundef %27)
  br label %29

29:                                               ; preds = %23, %16
  %30 = phi ptr [ %22, %16 ], [ %28, %23 ]
  %31 = call noundef ptr @_ZN4Luau3getINS_8TypePackEEEPKT_PKNS_11TypePackVarE(ptr noundef %30)
  store ptr %31, ptr %6, align 8, !tbaa !95
  %32 = load ptr, ptr %6, align 8, !tbaa !95
  %33 = icmp ne ptr %32, null
  br i1 %33, label %34, label %40

34:                                               ; preds = %29
  %35 = load ptr, ptr %6, align 8, !tbaa !95
  %36 = load ptr, ptr %4, align 8, !tbaa !73
  %37 = call noundef i64 @_ZN4Luau4sizeERKNS_8TypePackEPNS_6TxnLogE(ptr noundef nonnull align 8 dereferenceable(40) %35, ptr noundef %36)
  %38 = load i64, ptr %5, align 8, !tbaa !41
  %39 = add i64 %38, %37
  store i64 %39, ptr %5, align 8, !tbaa !41
  br label %40

40:                                               ; preds = %34, %29
  call void @llvm.lifetime.end.p0(i64 8, ptr %6) #17
  br label %41

41:                                               ; preds = %40, %2
  %42 = load i64, ptr %5, align 8, !tbaa !41
  call void @llvm.lifetime.end.p0(i64 8, ptr %5) #17
  ret i64 %42
}

; Function Attrs: mustprogress uwtable
define linkonce_odr dso_local noundef ptr @_ZN4Luau3getINS_8TypePackEEEPKT_PKNS_11TypePackVarE(ptr noundef %0) #2 comdat {
  %2 = alloca ptr, align 8
  store ptr %0, ptr %2, align 8, !tbaa !46
  %3 = load ptr, ptr %2, align 8, !tbaa !46
  %4 = getelementptr inbounds nuw %"struct.Luau::TypePackVar", ptr %3, i32 0, i32 0
  %5 = call noundef ptr @_ZN4Luau6get_ifINS_8TypePackEJNS_9Unifiable5BoundIPKNS_11TypePackVarEEENS2_5ErrorIS6_EENS_12FreeTypePackENS_15GenericTypePackES1_NS_16VariadicTypePackENS_15BlockedTypePackENS_28TypeFunctionInstanceTypePackEEEEPKT_PKNS_7VariantIJDpT0_EEE(ptr noundef %4)
  ret ptr %5
}

; Function Attrs: mustprogress uwtable
define dso_local noundef i64 @_ZN4Luau4sizeEPKNS_11TypePackVarEPNS_6TxnLogE(ptr noundef %0, ptr noundef %1) #2 {
  %3 = alloca i64, align 8
  %4 = alloca ptr, align 8
  %5 = alloca ptr, align 8
  %6 = alloca ptr, align 8
  %7 = alloca i32, align 4
  store ptr %0, ptr %4, align 8, !tbaa !46
  store ptr %1, ptr %5, align 8, !tbaa !73
  %8 = load ptr, ptr %5, align 8, !tbaa !73
  %9 = icmp ne ptr %8, null
  br i1 %9, label %10, label %14

10:                                               ; preds = %2
  %11 = load ptr, ptr %5, align 8, !tbaa !73
  %12 = load ptr, ptr %4, align 8, !tbaa !46
  %13 = call noundef ptr @_ZNK4Luau6TxnLog6followEPKNS_11TypePackVarE(ptr noundef nonnull align 8 dereferenceable(128) %11, ptr noundef %12)
  br label %17

14:                                               ; preds = %2
  %15 = load ptr, ptr %4, align 8, !tbaa !46
  %16 = call noundef ptr @_ZN4Luau6followEPKNS_11TypePackVarE(ptr noundef %15)
  br label %17

17:                                               ; preds = %14, %10
  %18 = phi ptr [ %13, %10 ], [ %16, %14 ]
  store ptr %18, ptr %4, align 8, !tbaa !46
  call void @llvm.lifetime.start.p0(i64 8, ptr %6) #17
  %19 = load ptr, ptr %4, align 8, !tbaa !46
  %20 = call noundef ptr @_ZN4Luau3getINS_8TypePackEEEPKT_PKNS_11TypePackVarE(ptr noundef %19)
  store ptr %20, ptr %6, align 8, !tbaa !95
  %21 = load ptr, ptr %6, align 8, !tbaa !95
  %22 = icmp ne ptr %21, null
  br i1 %22, label %23, label %27

23:                                               ; preds = %17
  %24 = load ptr, ptr %6, align 8, !tbaa !95
  %25 = load ptr, ptr %5, align 8, !tbaa !73
  %26 = call noundef i64 @_ZN4Luau4sizeERKNS_8TypePackEPNS_6TxnLogE(ptr noundef nonnull align 8 dereferenceable(40) %24, ptr noundef %25)
  store i64 %26, ptr %3, align 8
  store i32 1, ptr %7, align 4
  br label %28

27:                                               ; preds = %17
  store i64 0, ptr %3, align 8
  store i32 1, ptr %7, align 4
  br label %28

28:                                               ; preds = %27, %23
  call void @llvm.lifetime.end.p0(i64 8, ptr %6) #17
  %29 = load i64, ptr %3, align 8
  ret i64 %29
}