; Function Attrs: mustprogress uwtable
define dso_local noundef i64 @_ZN4Luau4sizeEPKNS_11TypePackVarEPNS_6TxnLogE(ptr noundef %0, ptr noundef %1) local_unnamed_addr #2 {
  %.not = icmp eq ptr %1, null
  br i1 %.not, label %5, label %3

3:                                                ; preds = %2
  %4 = tail call noundef ptr @_ZNK4Luau6TxnLog6followEPKNS_11TypePackVarE(ptr noundef nonnull align 8 dereferenceable(128) %1, ptr noundef %0)
  br label %7

5:                                                ; preds = %2
  %6 = tail call noundef ptr @_ZN4Luau6followEPKNS_11TypePackVarE(ptr noundef %0)
  br label %7

7:                                                ; preds = %5, %3
  %8 = phi ptr [ %4, %3 ], [ %6, %5 ]
  %.not.i.i = icmp eq ptr %8, null
  br i1 %.not.i.i, label %_ZN4Luau3getINS_8TypePackEEEPKT_PKNS_11TypePackVarE.exit.thread, label %9

9:                                                ; preds = %7
  %10 = load i32, ptr %8, align 8, !tbaa !49
  %11 = icmp eq i32 %10, 4
  br i1 %11, label %_ZN4Luau3getINS_8TypePackEEEPKT_PKNS_11TypePackVarE.exit, label %_ZN4Luau3getINS_8TypePackEEEPKT_PKNS_11TypePackVarE.exit.thread

_ZN4Luau3getINS_8TypePackEEEPKT_PKNS_11TypePackVarE.exit: ; preds = %9
  %12 = getelementptr inbounds nuw i8, ptr %8, i64 8
  %13 = getelementptr inbounds nuw i8, ptr %8, i64 16
  %14 = load ptr, ptr %13, align 8, !tbaa !85
  %15 = load ptr, ptr %12, align 8, !tbaa !81
  %16 = ptrtoint ptr %14 to i64
  %17 = ptrtoint ptr %15 to i64
  %18 = sub i64 %16, %17
  %19 = ashr exact i64 %18, 3
  %20 = getelementptr inbounds nuw i8, ptr %8, i64 40
  %21 = load i8, ptr %20, align 8, !tbaa !72, !range !74, !noundef !75
  %22 = trunc nuw i8 %21 to i1
  br i1 %22, label %.lr.ph.i, label %_ZN4Luau4sizeERKNS_8TypePackEPNS_6TxnLogE.exit

.lr.ph.i:                                         ; preds = %_ZN4Luau3getINS_8TypePackEEEPKT_PKNS_11TypePackVarE.exit
  %23 = getelementptr inbounds nuw i8, ptr %8, i64 32
  br i1 %.not, label %.lr.ph.split.us.i, label %.lr.ph.split.i

.lr.ph.split.us.i:                                ; preds = %.lr.ph.i, %_ZN4Luau3getINS_8TypePackEEEPKT_PKNS_11TypePackVarE.exit.us.i
  %24 = phi ptr [ %40, %_ZN4Luau3getINS_8TypePackEEEPKT_PKNS_11TypePackVarE.exit.us.i ], [ %23, %.lr.ph.i ]
  %25 = phi i64 [ %39, %_ZN4Luau3getINS_8TypePackEEEPKT_PKNS_11TypePackVarE.exit.us.i ], [ %19, %.lr.ph.i ]
  %accumulator.tr15.us.i = phi i64 [ %32, %_ZN4Luau3getINS_8TypePackEEEPKT_PKNS_11TypePackVarE.exit.us.i ], [ 0, %.lr.ph.i ]
  %26 = load ptr, ptr %24, align 8, !tbaa !76
  %27 = tail call noundef ptr @_ZN4Luau6followEPKNS_11TypePackVarE(ptr noundef %26)
  %.not.i.i.us.i = icmp eq ptr %27, null
  br i1 %.not.i.i.us.i, label %_ZN4Luau4sizeERKNS_8TypePackEPNS_6TxnLogE.exit, label %28

28:                                               ; preds = %.lr.ph.split.us.i
  %29 = load i32, ptr %27, align 8, !tbaa !49
  %30 = icmp eq i32 %29, 4
  br i1 %30, label %_ZN4Luau3getINS_8TypePackEEEPKT_PKNS_11TypePackVarE.exit.us.i, label %_ZN4Luau4sizeERKNS_8TypePackEPNS_6TxnLogE.exit

_ZN4Luau3getINS_8TypePackEEEPKT_PKNS_11TypePackVarE.exit.us.i: ; preds = %28
  %31 = getelementptr inbounds nuw i8, ptr %27, i64 8
  %32 = add i64 %accumulator.tr15.us.i, %25
  %33 = getelementptr inbounds nuw i8, ptr %27, i64 16
  %34 = load ptr, ptr %33, align 8, !tbaa !85
  %35 = load ptr, ptr %31, align 8, !tbaa !81
  %36 = ptrtoint ptr %34 to i64
  %37 = ptrtoint ptr %35 to i64
  %38 = sub i64 %36, %37
  %39 = ashr exact i64 %38, 3
  %40 = getelementptr inbounds nuw i8, ptr %27, i64 32
  %41 = getelementptr inbounds nuw i8, ptr %27, i64 40
  %42 = load i8, ptr %41, align 8, !tbaa !72, !range !74, !noundef !75
  %43 = trunc nuw i8 %42 to i1
  br i1 %43, label %.lr.ph.split.us.i, label %_ZN4Luau4sizeERKNS_8TypePackEPNS_6TxnLogE.exit

.lr.ph.split.i:                                   ; preds = %.lr.ph.i, %_ZN4Luau3getINS_8TypePackEEEPKT_PKNS_11TypePackVarE.exit.i
  %44 = phi ptr [ %60, %_ZN4Luau3getINS_8TypePackEEEPKT_PKNS_11TypePackVarE.exit.i ], [ %23, %.lr.ph.i ]
  %45 = phi i64 [ %59, %_ZN4Luau3getINS_8TypePackEEEPKT_PKNS_11TypePackVarE.exit.i ], [ %19, %.lr.ph.i ]
  %accumulator.tr15.i = phi i64 [ %52, %_ZN4Luau3getINS_8TypePackEEEPKT_PKNS_11TypePackVarE.exit.i ], [ 0, %.lr.ph.i ]
  %46 = load ptr, ptr %44, align 8, !tbaa !76
  %47 = tail call noundef ptr @_ZNK4Luau6TxnLog6followEPKNS_11TypePackVarE(ptr noundef nonnull align 8 dereferenceable(128) %1, ptr noundef %46)
  %.not.i.i.i = icmp eq ptr %47, null
  br i1 %.not.i.i.i, label %_ZN4Luau4sizeERKNS_8TypePackEPNS_6TxnLogE.exit, label %48

48:                                               ; preds = %.lr.ph.split.i
  %49 = load i32, ptr %47, align 8, !tbaa !49
  %50 = icmp eq i32 %49, 4
  br i1 %50, label %_ZN4Luau3getINS_8TypePackEEEPKT_PKNS_11TypePackVarE.exit.i, label %_ZN4Luau4sizeERKNS_8TypePackEPNS_6TxnLogE.exit

_ZN4Luau3getINS_8TypePackEEEPKT_PKNS_11TypePackVarE.exit.i: ; preds = %48
  %51 = getelementptr inbounds nuw i8, ptr %47, i64 8
  %52 = add i64 %accumulator.tr15.i, %45
  %53 = getelementptr inbounds nuw i8, ptr %47, i64 16
  %54 = load ptr, ptr %53, align 8, !tbaa !85
  %55 = load ptr, ptr %51, align 8, !tbaa !81
  %56 = ptrtoint ptr %54 to i64
  %57 = ptrtoint ptr %55 to i64
  %58 = sub i64 %56, %57
  %59 = ashr exact i64 %58, 3
  %60 = getelementptr inbounds nuw i8, ptr %47, i64 32
  %61 = getelementptr inbounds nuw i8, ptr %47, i64 40
  %62 = load i8, ptr %61, align 8, !tbaa !72, !range !74, !noundef !75
  %63 = trunc nuw i8 %62 to i1
  br i1 %63, label %.lr.ph.split.i, label %_ZN4Luau4sizeERKNS_8TypePackEPNS_6TxnLogE.exit

_ZN4Luau4sizeERKNS_8TypePackEPNS_6TxnLogE.exit:   ; preds = %.lr.ph.split.i, %48, %_ZN4Luau3getINS_8TypePackEEEPKT_PKNS_11TypePackVarE.exit.i, %.lr.ph.split.us.i, %28, %_ZN4Luau3getINS_8TypePackEEEPKT_PKNS_11TypePackVarE.exit.us.i, %_ZN4Luau3getINS_8TypePackEEEPKT_PKNS_11TypePackVarE.exit
  %accumulator.tr.lcssa.i = phi i64 [ 0, %_ZN4Luau3getINS_8TypePackEEEPKT_PKNS_11TypePackVarE.exit ], [ %32, %_ZN4Luau3getINS_8TypePackEEEPKT_PKNS_11TypePackVarE.exit.us.i ], [ %accumulator.tr15.us.i, %28 ], [ %accumulator.tr15.us.i, %.lr.ph.split.us.i ], [ %52, %_ZN4Luau3getINS_8TypePackEEEPKT_PKNS_11TypePackVarE.exit.i ], [ %accumulator.tr15.i, %48 ], [ %accumulator.tr15.i, %.lr.ph.split.i ]
  %.lcssa.i = phi i64 [ %19, %_ZN4Luau3getINS_8TypePackEEEPKT_PKNS_11TypePackVarE.exit ], [ %39, %_ZN4Luau3getINS_8TypePackEEEPKT_PKNS_11TypePackVarE.exit.us.i ], [ %25, %28 ], [ %25, %.lr.ph.split.us.i ], [ %59, %_ZN4Luau3getINS_8TypePackEEEPKT_PKNS_11TypePackVarE.exit.i ], [ %45, %48 ], [ %45, %.lr.ph.split.i ]
  %accumulator.ret.tr.i = add i64 %.lcssa.i, %accumulator.tr.lcssa.i
  br label %_ZN4Luau3getINS_8TypePackEEEPKT_PKNS_11TypePackVarE.exit.thread

_ZN4Luau3getINS_8TypePackEEEPKT_PKNS_11TypePackVarE.exit.thread: ; preds = %7, %9, %_ZN4Luau4sizeERKNS_8TypePackEPNS_6TxnLogE.exit
  %.0 = phi i64 [ %accumulator.ret.tr.i, %_ZN4Luau4sizeERKNS_8TypePackEPNS_6TxnLogE.exit ], [ 0, %9 ], [ 0, %7 ]
  ret i64 %.0
}